#include <math.h>
#include <stdio.h>
#include <stdlib.h>
#include <string.h>
#define LEN 100
#define ASCII 100
#define MAX_N 100
#define MAX_N 100
#define L 100
#define MAX 100
#define ASC 100
#define null 0
#define Len 100
#define M 100
#define SUM 100
#define NUMBER 100
#define SIZE 100
#define N 100
#define Max 100
#define X 100
#define Y 100
#define A 100
#define MAXN 100
#define MAXSIZE 100
struct student
{
	char num[20];
	char name[20];
	char sex;
	int age;
	float score;
	char address[20];
	struct student *next;
};
int n;
struct student *creat(void)
{
	struct student *head;
	struct student *p1,*p2;
	int num=0;
	head=NULL;
	while (1)
	{
		p1=(struct student *)malloc(LEN);
		scanf("%s",p1->num);
		if (strcmp(p1->num,"end")==0)
		{
			p2->next=NULL;
			break;
		}
		else
		{
			scanf("%s %c %d %f %s",p1->name,&p1->sex,&p1->age,&p1->score,p1->address);
			if (num==0)
				head=p1;
			else
				p2->next=p1;
			p2=p1;
			num++;
		}
	}
	n=num;
	return (head);
}
void print (struct student *pt)
{
	struct student *p,*pre;
	int i;
	for (i=1;i<=n;i++)
	{
		for (p=pre=pt;p->next!=NULL;p=p->next)
			pre=p;
		printf("%s %s %c %d %g %s\n",p->num,p->name,p->sex,p->age,p->score,p->address);
		if (p!=pt)
		{
			pre->next=NULL;
			free(p);
		}
	}
}
int main()
{
	struct student *pt;
	pt=creat();
	print(pt);
	return 0;
}